; Function Attrs: mustprogress nounwind uwtable
define void @_ZN4LIEF2PE12ResourceNode4swapERS1_(ptr noundef nonnull align 8 dereferenceable(76) %0, ptr noundef nonnull align 8 dereferenceable(76) %1) local_unnamed_addr #1 align 2 personality ptr @__gxx_personality_v0 {
  %3 = getelementptr inbounds i8, ptr %0, i64 8
  %4 = getelementptr inbounds i8, ptr %1, i64 8
  %5 = load i32, ptr %3, align 8
  %6 = load i32, ptr %4, align 8
  store i32 %6, ptr %3, align 8
  store i32 %5, ptr %4, align 8
  %7 = getelementptr inbounds i8, ptr %0, i64 12
  %8 = getelementptr inbounds i8, ptr %1, i64 12
  %9 = load i32, ptr %7, align 4
  %10 = load i32, ptr %8, align 4
  store i32 %10, ptr %7, align 4
  store i32 %9, ptr %8, align 4
  %11 = getelementptr inbounds i8, ptr %0, i64 16
  %12 = getelementptr inbounds i8, ptr %1, i64 16
  tail call void @_ZNSt7__cxx1112basic_stringIDsSt11char_traitsIDsESaIDsEE4swapERS4_(ptr noundef nonnull align 8 dereferenceable(32) %11, ptr noundef nonnull align 8 dereferenceable(32) %12) #25
  %13 = getelementptr inbounds i8, ptr %0, i64 48
  %14 = getelementptr inbounds i8, ptr %1, i64 48
  %15 = getelementptr inbounds i8, ptr %0, i64 56
  %16 = getelementptr inbounds i8, ptr %0, i64 64
  %17 = load ptr, ptr %16, align 8
  %18 = load ptr, ptr %14, align 8
  %19 = getelementptr inbounds i8, ptr %1, i64 56
  %20 = getelementptr inbounds i8, ptr %1, i64 64
  %21 = load <2 x ptr>, ptr %13, align 8
  store ptr %18, ptr %13, align 8
  %22 = load ptr, ptr %19, align 8
  store ptr %22, ptr %15, align 8
  %23 = load ptr, ptr %20, align 8
  store ptr %23, ptr %16, align 8
  store <2 x ptr> %21, ptr %14, align 8
  store ptr %17, ptr %20, align 8
  %24 = getelementptr inbounds i8, ptr %0, i64 72
  %25 = getelementptr inbounds i8, ptr %1, i64 72
  %26 = load i32, ptr %24, align 8
  %27 = load i32, ptr %25, align 8
  store i32 %27, ptr %24, align 8
  store i32 %26, ptr %25, align 8
  ret void
}